Certificate:
    Data:
        Version: 3 (0x2)
        Serial Number:
            e8:24:32:5b:ea:a2:e8:93
    Signature Algorithm: sha256WithRSAEncryption
        Issuer: C=RU, ST=RU, O=VSK, OU=IT, CN=vskca/emailAddress=shchegolev@vsk.ru
        Validity
            Not Before: Feb 13 13:36:01 2024 GMT
            Not After : Feb 12 13:36:01 2025 GMT
        Subject: C=RU, ST=Some-State, O=VSK, OU=IT, CN=marketplace/emailAddress=shchegolev@vsk.ru
        Subject Public Key Info:
            Public Key Algorithm: rsaEncryption
                Public-Key: (2048 bit)
                Modulus:
                    00:cf:e2:a8:1c:ea:5e:e9:74:6b:34:e7:44:e5:04:
                    e9:2d:df:74:04:28:ef:4d:54:ca:d2:e1:ed:76:2e:
                    53:e1:5d:87:0e:6a:fe:8b:81:24:46:df:31:d1:e3:
                    88:c3:54:9e:82:da:e9:fb:ec:40:d5:af:5a:7a:10:
                    8c:4a:85:f6:8a:16:43:8c:31:17:68:b3:08:dc:77:
                    e8:ea:6f:44:a3:82:f5:df:76:92:bc:22:64:80:cc:
                    15:c3:17:a8:b3:60:5d:a1:f0:18:c6:42:d2:fa:40:
                    31:55:55:c9:62:80:b7:ce:63:bc:07:11:c5:69:ac:
                    90:64:01:60:f5:00:c1:ab:13:40:14:26:26:a5:82:
                    a8:83:d1:ff:78:15:c5:19:ab:56:b7:dd:9a:88:ed:
                    b0:c7:99:a7:9f:ad:d0:56:db:44:f5:90:cb:25:df:
                    69:1b:b2:96:15:c9:7a:db:8e:9d:f4:91:51:44:83:
                    5c:7b:5a:b4:95:e2:5d:16:13:84:64:10:64:e1:81:
                    9a:6a:32:a3:74:c0:f2:09:43:7c:fc:88:5d:4e:da:
                    58:62:86:33:a6:71:69:17:74:19:07:3a:36:d6:42:
                    07:3b:8f:16:73:79:1c:65:dd:59:32:95:4f:16:7e:
                    69:35:45:2c:2b:7d:1b:88:8e:6f:b5:00:ae:a5:e8:
                    ad:73
                Exponent: 65537 (0x10001)
        X509v3 extensions:
            X509v3 Basic Constraints:
                CA:FALSE
            Netscape Comment:
                OpenSSL Generated Certificate
            X509v3 Subject Key Identifier:
                16:ED:10:B5:A2:F9:47:0B:9A:7D:94:FC:01:96:CE:E7:BF:AD:0F:16
            X509v3 Authority Key Identifier:
                keyid:F5:84:51:35:EE:F5:62:26:8C:BC:D2:16:DE:EA:01:9D:CD:49:E0:62

    Signature Algorithm: sha256WithRSAEncryption
         65:ce:ca:9c:f0:82:25:8a:be:b7:db:76:2e:28:a4:79:a1:01:
         b2:06:06:21:49:a8:66:ce:0c:3b:a9:97:7b:3e:1a:4f:b0:5a:
         52:5f:a8:ce:63:74:ac:c8:96:47:28:8e:0e:99:f7:d8:4c:82:
         38:c6:bb:95:57:09:9e:56:7f:ef:1c:4c:f8:8a:15:f1:bf:18:
         36:21:3c:b8:d6:bb:1d:24:ce:52:6f:dd:ac:75:1b:53:0a:ac:
         8a:2d:13:ab:fa:2d:96:a6:b0:22:17:b4:b7:b2:9d:33:9a:bd:
         6e:75:e4:a8:31:85:b3:1b:8d:ad:57:ea:6d:77:bd:a0:ee:89:
         39:be:d0:de:6f:41:a2:91:2d:1c:9c:fe:ae:d6:e4:b3:1e:4f:
         db:d8:b6:3a:72:71:cd:8d:3a:af:6e:2f:13:df:74:93:fa:e1:
         e0:e4:2f:52:5a:3d:48:e8:ec:f1:d2:b7:1f:b8:55:46:74:86:
         2e:81:a8:9a:79:d6:db:35:87:a5:d6:c7:bc:2b:3b:4e:24:92:
         e5:e7:38:5d:bd:45:6a:c7:55:fa:78:63:5e:52:4c:6f:a4:ac:
         2e:cf:c0:3e:d9:05:e1:c8:91:a7:25:d5:54:d7:00:73:01:36:
         ea:5b:5b:6a:76:e7:cc:89:f5:b1:87:70:13:79:7e:35:c5:99:
         cd:dc:a4:29
-----BEGIN CERTIFICATE-----
MIID2jCCAsKgAwIBAgIJAOgkMlvqouiTMA0GCSqGSIb3DQEBCwUAMGcxCzAJBgNV
BAYTAlJVMQswCQYDVQQIDAJSVTEMMAoGA1UECgwDVlNLMQswCQYDVQQLDAJJVDEO
MAwGA1UEAwwFdnNrY2ExIDAeBgkqhkiG9w0BCQEWEXNoY2hlZ29sZXZAdnNrLnJ1
MB4XDTI0MDIxMzEzMzYwMVoXDTI1MDIxMjEzMzYwMVowdTELMAkGA1UEBhMCUlUx
EzARBgNVBAgMClNvbWUtU3RhdGUxDDAKBgNVBAoMA1ZTSzELMAkGA1UECwwCSVQx
FDASBgNVBAMMC21hcmtldHBsYWNlMSAwHgYJKoZIhvcNAQkBFhFzaGNoZWdvbGV2
QHZzay5ydTCCASIwDQYJKoZIhvcNAQEBBQADggEPADCCAQoCggEBAM/iqBzqXul0
azTnROUE6S3fdAQo701UytLh7XYuU+Fdhw5q/ouBJEbfMdHjiMNUnoLa6fvsQNWv
WnoQjEqF9ooWQ4wxF2izCNx36OpvRKOC9d92krwiZIDMFcMXqLNgXaHwGMZC0vpA
MVVVyWKAt85jvAcRxWmskGQBYPUAwasTQBQmJqWCqIPR/3gVxRmrVrfdmojtsMeZ
p5+t0FbbRPWQyyXfaRuylhXJetuOnfSRUUSDXHtatJXiXRYThGQQZOGBmmoyo3TA
8glDfPyIXU7aWGKGM6ZxaRd0GQc6NtZCBzuPFnN5HGXdWTKVTxZ+aTVFLCt9G4iO
b7UArqXorXMCAwEAAaN7MHkwCQYDVR0TBAIwADAsBglghkgBhvhCAQ0EHxYdT3Bl
blNTTCBHZW5lcmF0ZWQgQ2VydGlmaWNhdGUwHQYDVR0OBBYEFBbtELWi+UcLmn2U
/AGWzue/rQ8WMB8GA1UdIwQYMBaAFPWEUTXu9WImjLzSFt7qAZ3NSeBiMA0GCSqG
SIb3DQEBCwUAA4IBAQBlzsqc8IIlir6323YuKKR5oQGyBgYhSahmzgw7qZd7PhpP
sFpSX6jOY3SsyJZHKI4OmffYTII4xruVVwmeVn/vHEz4ihXxvxg2ITy41rsdJM5S
b92sdRtTCqyKLROr+i2WprAiF7S3sp0zmr1udeSoMYWzG42tV+ptd72g7ok5vtDe
b0GikS0cnP6u1uSzHk/b2LY6cnHNjTqvbi8T33ST+uHg5C9SWj1I6Ozx0rcfuFVG
dIYugaiaedbbNYel1se8KztOJJLl5zhdvUVqx1X6eGNeUkxvpKwuz8A+2QXhyJGn
JdVU1wBzATbqW1tqdufMifWxh3ATeX41xZnN3KQp
-----END CERTIFICATE-----