Certificate:
    Data:
        Version: 3 (0x2)
        Serial Number:
            e8:24:32:5b:ea:a2:e8:05
    Signature Algorithm: sha256WithRSAEncryption
        Issuer: C=RU, ST=RU, O=VSK, OU=IT, CN=vskca/emailAddress=shchegolev@vsk.ru
        Validity
            Not Before: Feb  9 08:18:29 2023 GMT
            Not After : Feb  9 08:18:29 2024 GMT
        Subject: C=RU, CN=marketplace
        Subject Public Key Info:
            Public Key Algorithm: rsaEncryption
                Public-Key: (2048 bit)
                Modulus:
                    00:b0:40:73:fd:20:dd:70:f7:2e:e4:26:42:70:51:
                    d8:9d:ab:2a:98:ec:bc:96:d3:e8:00:c2:d3:52:29:
                    a5:d5:67:57:1d:a1:63:27:8d:ac:78:92:d5:b4:5c:
                    5e:ad:e5:01:84:42:d3:62:37:75:d0:4f:c6:bd:3d:
                    67:3e:28:da:36:11:c6:e4:a2:51:9c:02:18:e1:32:
                    be:8a:4c:4a:c5:fc:a7:e2:83:50:15:94:3c:bc:23:
                    fc:59:24:29:b3:de:68:a9:86:c1:0b:48:fd:28:18:
                    b7:ba:c9:7a:bc:0c:fb:09:45:69:3f:00:f1:e5:f7:
                    f3:5c:cc:b4:72:e7:90:4a:17:94:7a:2f:2f:62:75:
                    95:da:d4:6c:72:db:d5:ff:58:ff:c2:db:23:9f:ee:
                    d0:b0:77:cf:85:37:6c:5b:4e:07:a5:05:5b:66:f1:
                    fe:2b:fc:26:07:c7:58:1f:6c:1b:c2:f3:c0:60:65:
                    5d:1a:a3:e3:8f:64:72:fd:d3:87:dc:47:d7:f6:1b:
                    ab:69:a0:36:6d:de:a7:d1:04:0d:fe:cd:99:e2:4c:
                    6f:2e:e8:39:14:a7:8a:14:64:a2:88:44:0f:3e:c6:
                    c6:a6:45:7e:cb:60:df:eb:bc:15:c5:ce:21:d3:fd:
                    f0:25:a8:a3:69:c8:cc:0a:94:67:0b:b9:41:67:59:
                    68:89
                Exponent: 65537 (0x10001)
        X509v3 extensions:
            X509v3 Basic Constraints: 
                CA:FALSE
            Netscape Comment: 
                OpenSSL Generated Certificate
            X509v3 Subject Key Identifier: 
                B2:68:C8:2D:B8:99:F0:78:9F:3F:5A:55:73:6E:94:47:2F:44:68:64
            X509v3 Authority Key Identifier: 
                keyid:F5:84:51:35:EE:F5:62:26:8C:BC:D2:16:DE:EA:01:9D:CD:49:E0:62

    Signature Algorithm: sha256WithRSAEncryption
         48:dc:8d:c7:9c:eb:64:fe:d9:79:15:e5:07:b7:eb:29:4d:01:
         ee:1e:21:d5:a8:2f:2e:7d:fb:96:84:ec:c9:f4:86:29:f8:70:
         a4:be:b0:d8:09:00:a0:10:ff:19:11:4e:a0:5c:79:25:d7:df:
         28:29:42:c1:36:86:e2:03:ce:62:59:e4:ad:62:d6:70:59:7a:
         da:ba:ee:d7:4e:1d:37:99:e3:aa:b5:e7:bd:42:5d:28:65:f1:
         60:de:67:3c:f0:4d:d5:d1:af:9c:28:c2:10:e7:5b:e4:f4:aa:
         30:ce:79:ef:fd:11:7d:c1:6c:d4:ca:3f:d3:de:d3:fb:b9:ff:
         65:e9:da:b2:5e:74:d9:d6:80:11:27:b4:68:4d:f4:d1:ac:b7:
         df:51:c9:8b:f8:d9:ef:fe:c2:1a:f4:d3:cf:93:b6:a2:e1:98:
         68:78:05:74:f0:1c:c1:ec:06:05:dd:96:65:f6:e2:d6:9d:c7:
         2a:95:f7:b8:45:3c:b9:76:3d:04:f4:09:42:90:32:ee:9e:2d:
         88:67:2f:e4:44:fa:4f:c2:97:7b:2e:81:0a:81:fd:8b:ba:16:
         69:d6:44:41:ba:b4:4c:0b:14:37:d8:4d:a2:c4:3d:b4:e1:06:
         94:34:ce:10:19:45:9e:83:3f:6c:d1:1b:69:76:a3:96:8f:d6:
         b9:d6:9a:ca
-----BEGIN CERTIFICATE-----
MIIDiDCCAnCgAwIBAgIJAOgkMlvqougFMA0GCSqGSIb3DQEBCwUAMGcxCzAJBgNV
BAYTAlJVMQswCQYDVQQIDAJSVTEMMAoGA1UECgwDVlNLMQswCQYDVQQLDAJJVDEO
MAwGA1UEAwwFdnNrY2ExIDAeBgkqhkiG9w0BCQEWEXNoY2hlZ29sZXZAdnNrLnJ1
MB4XDTIzMDIwOTA4MTgyOVoXDTI0MDIwOTA4MTgyOVowIzELMAkGA1UEBhMCUlUx
FDASBgNVBAMMC21hcmtldHBsYWNlMIIBIjANBgkqhkiG9w0BAQEFAAOCAQ8AMIIB
CgKCAQEAsEBz/SDdcPcu5CZCcFHYnasqmOy8ltPoAMLTUiml1WdXHaFjJ42seJLV
tFxereUBhELTYjd10E/GvT1nPijaNhHG5KJRnAIY4TK+ikxKxfyn4oNQFZQ8vCP8
WSQps95oqYbBC0j9KBi3usl6vAz7CUVpPwDx5ffzXMy0cueQSheUei8vYnWV2tRs
ctvV/1j/wtsjn+7QsHfPhTdsW04HpQVbZvH+K/wmB8dYH2wbwvPAYGVdGqPjj2Ry
/dOH3EfX9huraaA2bd6n0QQN/s2Z4kxvLug5FKeKFGSiiEQPPsbGpkV+y2Df67wV
xc4h0/3wJaijacjMCpRnC7lBZ1loiQIDAQABo3sweTAJBgNVHRMEAjAAMCwGCWCG
SAGG+EIBDQQfFh1PcGVuU1NMIEdlbmVyYXRlZCBDZXJ0aWZpY2F0ZTAdBgNVHQ4E
FgQUsmjILbiZ8HifP1pVc26URy9EaGQwHwYDVR0jBBgwFoAU9YRRNe71YiaMvNIW
3uoBnc1J4GIwDQYJKoZIhvcNAQELBQADggEBAEjcjcec62T+2XkV5Qe36ylNAe4e
IdWoLy59+5aE7Mn0hin4cKS+sNgJAKAQ/xkRTqBceSXX3ygpQsE2huIDzmJZ5K1i
1nBZetq67tdOHTeZ46q1571CXShl8WDeZzzwTdXRr5wowhDnW+T0qjDOee/9EX3B
bNTKP9Pe0/u5/2Xp2rJedNnWgBEntGhN9NGst99RyYv42e/+whr008+TtqLhmGh4
BXTwHMHsBgXdlmX24tadxyqV97hFPLl2PQT0CUKQMu6eLYhnL+RE+k/Cl3sugQqB
/Yu6FmnWREG6tEwLFDfYTaLEPbThBpQ0zhAZRZ6DP2zRG2l2o5aP1rnWmso=
-----END CERTIFICATE-----
